target datalayout = "e-m:e-p270:32:32-p271:32:32-p272:64:64-i64:64-i128:128-f80:128-n8:16:32:64-S128"
target triple = "x86_64-pc-linux-gnu"

%struct._zend_array = type { %struct._zend_refcounted_h, %union.anon.0, i32, %union.anon.1, i32, i32, i32, i32, i64, ptr }
%struct._zend_refcounted_h = type { i32, %union.anon }
%union.anon = type { i32 }
%union.anon.0 = type { i32 }
%union.anon.1 = type { ptr }
%struct._zval_struct = type { %union._zend_value, %union.anon.4, %union.anon.7 }
%union._zend_value = type { i64 }
%union.anon.4 = type { i32 }
%union.anon.7 = type { i32 }
%struct._zend_op_array = type { i8, [3 x i8], i32, ptr, ptr, ptr, i32, i32, ptr, ptr, ptr, ptr, i32, i32, i32, i32, ptr, ptr, ptr, ptr, ptr, i32, i32, ptr, ptr, ptr, i32, i32, i32, i32, ptr, ptr, [6 x ptr] }
%struct._zend_persistent_script = type { %struct._zend_script, i64, i32, i64, i8, i8, i8, i32, i32, ptr, ptr, ptr, i64, %struct.zend_persistent_script_dynamic_members }
%struct._zend_script = type { ptr, %struct._zend_op_array, %struct._zend_array, %struct._zend_array }
%struct.zend_persistent_script_dynamic_members = type { i64, i64, i32, i64 }
%struct._zend_accel_shared_globals = type { i64, i64, i64, i64, i64, i64, %struct._zend_accel_hash, i64, i64, i64, i64, i8, i8, i32, i8, i8, i8, ptr, ptr, [2 x i32], ptr, ptr, %struct._zend_string_table }
%struct._zend_accel_hash = type { ptr, ptr, i32, i32, i32 }
%struct._zend_string_table = type { i32, i32, ptr, ptr, ptr, ptr }
%struct._zend_ast = type { i16, i16, i32, [1 x ptr] }
%struct._zend_ast_zval = type { i16, i16, %struct._zval_struct }
%struct._zend_ast_list = type { i16, i16, i32, i32, [1 x ptr] }

@accel_shared_globals = external global ptr, align 8

; Function Attrs: nounwind uwtable
define internal void @zend_file_cache_unserialize_ast(ptr noundef %0, ptr noundef %1, ptr noundef %2) #0 {
  %4 = alloca ptr, align 8
  %5 = alloca ptr, align 8
  %6 = alloca ptr, align 8
  %7 = alloca ptr, align 8
  %8 = alloca ptr, align 8
  %9 = alloca ptr, align 8
  %10 = alloca i32, align 4
  %11 = alloca ptr, align 8
  %12 = alloca i32, align 4
  store ptr %0, ptr %7, align 8
  store ptr %1, ptr %8, align 8
  store ptr %2, ptr %9, align 8
  %13 = load ptr, ptr %7, align 8
  %14 = getelementptr inbounds %struct._zend_ast, ptr %13, i32 0, i32 0
  %15 = load i16, ptr %14, align 8
  %16 = zext i16 %15 to i32
  %17 = icmp eq i32 %16, 64
  br i1 %17, label %24, label %18

18:                                               ; preds = %3
  %19 = load ptr, ptr %7, align 8
  %20 = getelementptr inbounds %struct._zend_ast, ptr %19, i32 0, i32 0
  %21 = load i16, ptr %20, align 8
  %22 = zext i16 %21 to i32
  %23 = icmp eq i32 %22, 65
  br i1 %23, label %24, label %29

24:                                               ; preds = %18, %3
  %25 = load ptr, ptr %7, align 8
  %26 = getelementptr inbounds %struct._zend_ast_zval, ptr %25, i32 0, i32 2
  %27 = load ptr, ptr %8, align 8
  %28 = load ptr, ptr %9, align 8
  call void @zend_file_cache_unserialize_zval(ptr noundef %26, ptr noundef %27, ptr noundef %28)
  br label %273

29:                                               ; preds = %18
  %30 = load ptr, ptr %7, align 8
  store ptr %30, ptr %6, align 8
  %31 = load ptr, ptr %6, align 8
  %32 = load i16, ptr %31, align 8
  %33 = zext i16 %32 to i32
  %34 = ashr i32 %33, 7
  %35 = and i32 %34, 1
  %36 = icmp ne i32 %35, 0
  br i1 %36, label %37, label %154

37:                                               ; preds = %29
  %38 = load ptr, ptr %7, align 8
  store ptr %38, ptr %5, align 8
  %39 = load ptr, ptr %5, align 8
  store ptr %39, ptr %11, align 8
  store i32 0, ptr %10, align 4
  br label %40

40:                                               ; preds = %150, %37
  %41 = load i32, ptr %10, align 4
  %42 = load ptr, ptr %11, align 8
  %43 = getelementptr inbounds %struct._zend_ast_list, ptr %42, i32 0, i32 3
  %44 = load i32, ptr %43, align 8
  %45 = icmp ult i32 %41, %44
  br i1 %45, label %46, label %153

46:                                               ; preds = %40
  %47 = load ptr, ptr %11, align 8
  %48 = getelementptr inbounds %struct._zend_ast_list, ptr %47, i32 0, i32 4
  %49 = load i32, ptr %10, align 4
  %50 = zext i32 %49 to i64
  %51 = getelementptr inbounds [1 x ptr], ptr %48, i64 0, i64 %50
  %52 = load ptr, ptr %51, align 8
  %53 = icmp ne ptr %52, null
  br i1 %53, label %54, label %149

54:                                               ; preds = %46
  %55 = load ptr, ptr %11, align 8
  %56 = getelementptr inbounds %struct._zend_ast_list, ptr %55, i32 0, i32 4
  %57 = load i32, ptr %10, align 4
  %58 = zext i32 %57 to i64
  %59 = getelementptr inbounds [1 x ptr], ptr %56, i64 0, i64 %58
  %60 = load ptr, ptr %59, align 8
  %61 = load ptr, ptr %8, align 8
  %62 = getelementptr inbounds %struct._zend_persistent_script, ptr %61, i32 0, i32 11
  %63 = load ptr, ptr %62, align 8
  %64 = icmp uge ptr %60, %63
  br i1 %64, label %65, label %80

65:                                               ; preds = %54
  %66 = load ptr, ptr %11, align 8
  %67 = getelementptr inbounds %struct._zend_ast_list, ptr %66, i32 0, i32 4
  %68 = load i32, ptr %10, align 4
  %69 = zext i32 %68 to i64
  %70 = getelementptr inbounds [1 x ptr], ptr %67, i64 0, i64 %69
  %71 = load ptr, ptr %70, align 8
  %72 = load ptr, ptr %8, align 8
  %73 = getelementptr inbounds %struct._zend_persistent_script, ptr %72, i32 0, i32 11
  %74 = load ptr, ptr %73, align 8
  %75 = load ptr, ptr %8, align 8
  %76 = getelementptr inbounds %struct._zend_persistent_script, ptr %75, i32 0, i32 12
  %77 = load i64, ptr %76, align 8
  %78 = getelementptr inbounds i8, ptr %74, i64 %77
  %79 = icmp ule ptr %71, %78
  br i1 %79, label %149, label %80

80:                                               ; preds = %65, %54
  %81 = load ptr, ptr %11, align 8
  %82 = getelementptr inbounds %struct._zend_ast_list, ptr %81, i32 0, i32 4
  %83 = load i32, ptr %10, align 4
  %84 = zext i32 %83 to i64
  %85 = getelementptr inbounds [1 x ptr], ptr %82, i64 0, i64 %84
  %86 = load ptr, ptr %85, align 8
  %87 = load ptr, ptr @accel_shared_globals, align 8
  %88 = getelementptr inbounds %struct._zend_accel_shared_globals, ptr %87, i32 0, i32 22
  %89 = getelementptr inbounds %struct._zend_string_table, ptr %88, i32 0, i32 2
  %90 = load ptr, ptr %89, align 8
  %91 = icmp uge ptr %86, %90
  br i1 %91, label %92, label %104

92:                                               ; preds = %80
  %93 = load ptr, ptr %11, align 8
  %94 = getelementptr inbounds %struct._zend_ast_list, ptr %93, i32 0, i32 4
  %95 = load i32, ptr %10, align 4
  %96 = zext i32 %95 to i64
  %97 = getelementptr inbounds [1 x ptr], ptr %94, i64 0, i64 %96
  %98 = load ptr, ptr %97, align 8
  %99 = load ptr, ptr @accel_shared_globals, align 8
  %100 = getelementptr inbounds %struct._zend_accel_shared_globals, ptr %99, i32 0, i32 22
  %101 = getelementptr inbounds %struct._zend_string_table, ptr %100, i32 0, i32 3
  %102 = load ptr, ptr %101, align 8
  %103 = icmp ult ptr %98, %102
  br i1 %103, label %149, label %104

104:                                              ; preds = %92, %80
  br label %105

105:                                              ; preds = %104
  %106 = load ptr, ptr %11, align 8
  %107 = getelementptr inbounds %struct._zend_ast_list, ptr %106, i32 0, i32 4
  %108 = load i32, ptr %10, align 4
  %109 = zext i32 %108 to i64
  %110 = getelementptr inbounds [1 x ptr], ptr %107, i64 0, i64 %109
  %111 = load ptr, ptr %110, align 8
  %112 = icmp ne ptr %111, null
  br i1 %112, label %113, label %139

113:                                              ; preds = %105
  %114 = load ptr, ptr %11, align 8
  %115 = getelementptr inbounds %struct._zend_ast_list, ptr %114, i32 0, i32 4
  %116 = load i32, ptr %10, align 4
  %117 = zext i32 %116 to i64
  %118 = getelementptr inbounds [1 x ptr], ptr %115, i64 0, i64 %117
  %119 = load ptr, ptr %118, align 8
  %120 = load ptr, ptr %8, align 8
  %121 = getelementptr inbounds %struct._zend_persistent_script, ptr %120, i32 0, i32 12
  %122 = load i64, ptr %121, align 8
  %123 = inttoptr i64 %122 to ptr
  %124 = icmp ule ptr %119, %123
  call void @llvm.assume(i1 %124)
  %125 = load ptr, ptr %9, align 8
  %126 = load ptr, ptr %11, align 8
  %127 = getelementptr inbounds %struct._zend_ast_list, ptr %126, i32 0, i32 4
  %128 = load i32, ptr %10, align 4
  %129 = zext i32 %128 to i64
  %130 = getelementptr inbounds [1 x ptr], ptr %127, i64 0, i64 %129
  %131 = load ptr, ptr %130, align 8
  %132 = ptrtoint ptr %131 to i64
  %133 = getelementptr inbounds i8, ptr %125, i64 %132
  %134 = load ptr, ptr %11, align 8
  %135 = getelementptr inbounds %struct._zend_ast_list, ptr %134, i32 0, i32 4
  %136 = load i32, ptr %10, align 4
  %137 = zext i32 %136 to i64
  %138 = getelementptr inbounds [1 x ptr], ptr %135, i64 0, i64 %137
  store ptr %133, ptr %138, align 8
  br label %139

139:                                              ; preds = %113, %105
  br label %140

140:                                              ; preds = %139
  %141 = load ptr, ptr %11, align 8
  %142 = getelementptr inbounds %struct._zend_ast_list, ptr %141, i32 0, i32 4
  %143 = load i32, ptr %10, align 4
  %144 = zext i32 %143 to i64
  %145 = getelementptr inbounds [1 x ptr], ptr %142, i64 0, i64 %144
  %146 = load ptr, ptr %145, align 8
  %147 = load ptr, ptr %8, align 8
  %148 = load ptr, ptr %9, align 8
  call void @zend_file_cache_unserialize_ast(ptr noundef %146, ptr noundef %147, ptr noundef %148)
  br label %149

149:                                              ; preds = %140, %92, %65, %46
  br label %150

150:                                              ; preds = %149
  %151 = load i32, ptr %10, align 4
  %152 = add i32 %151, 1
  store i32 %152, ptr %10, align 4
  br label %40

153:                                              ; preds = %40
  br label %272

154:                                              ; preds = %29
  %155 = load ptr, ptr %7, align 8
  store ptr %155, ptr %4, align 8
  %156 = load ptr, ptr %4, align 8
  %157 = load i16, ptr %156, align 8
  %158 = zext i16 %157 to i32
  %159 = ashr i32 %158, 8
  store i32 %159, ptr %12, align 4
  store i32 0, ptr %10, align 4
  br label %160

160:                                              ; preds = %268, %154
  %161 = load i32, ptr %10, align 4
  %162 = load i32, ptr %12, align 4
  %163 = icmp ult i32 %161, %162
  br i1 %163, label %164, label %271

164:                                              ; preds = %160
  %165 = load ptr, ptr %7, align 8
  %166 = getelementptr inbounds %struct._zend_ast, ptr %165, i32 0, i32 3
  %167 = load i32, ptr %10, align 4
  %168 = zext i32 %167 to i64
  %169 = getelementptr inbounds [1 x ptr], ptr %166, i64 0, i64 %168
  %170 = load ptr, ptr %169, align 8
  %171 = icmp ne ptr %170, null
  br i1 %171, label %172, label %267

172:                                              ; preds = %164
  %173 = load ptr, ptr %7, align 8
  %174 = getelementptr inbounds %struct._zend_ast, ptr %173, i32 0, i32 3
  %175 = load i32, ptr %10, align 4
  %176 = zext i32 %175 to i64
  %177 = getelementptr inbounds [1 x ptr], ptr %174, i64 0, i64 %176
  %178 = load ptr, ptr %177, align 8
  %179 = load ptr, ptr %8, align 8
  %180 = getelementptr inbounds %struct._zend_persistent_script, ptr %179, i32 0, i32 11
  %181 = load ptr, ptr %180, align 8
  %182 = icmp uge ptr %178, %181
  br i1 %182, label %183, label %198

183:                                              ; preds = %172
  %184 = load ptr, ptr %7, align 8
  %185 = getelementptr inbounds %struct._zend_ast, ptr %184, i32 0, i32 3
  %186 = load i32, ptr %10, align 4
  %187 = zext i32 %186 to i64
  %188 = getelementptr inbounds [1 x ptr], ptr %185, i64 0, i64 %187
  %189 = load ptr, ptr %188, align 8
  %190 = load ptr, ptr %8, align 8
  %191 = getelementptr inbounds %struct._zend_persistent_script, ptr %190, i32 0, i32 11
  %192 = load ptr, ptr %191, align 8
  %193 = load ptr, ptr %8, align 8
  %194 = getelementptr inbounds %struct._zend_persistent_script, ptr %193, i32 0, i32 12
  %195 = load i64, ptr %194, align 8
  %196 = getelementptr inbounds i8, ptr %192, i64 %195
  %197 = icmp ule ptr %189, %196
  br i1 %197, label %267, label %198

198:                                              ; preds = %183, %172
  %199 = load ptr, ptr %7, align 8
  %200 = getelementptr inbounds %struct._zend_ast, ptr %199, i32 0, i32 3
  %201 = load i32, ptr %10, align 4
  %202 = zext i32 %201 to i64
  %203 = getelementptr inbounds [1 x ptr], ptr %200, i64 0, i64 %202
  %204 = load ptr, ptr %203, align 8
  %205 = load ptr, ptr @accel_shared_globals, align 8
  %206 = getelementptr inbounds %struct._zend_accel_shared_globals, ptr %205, i32 0, i32 22
  %207 = getelementptr inbounds %struct._zend_string_table, ptr %206, i32 0, i32 2
  %208 = load ptr, ptr %207, align 8
  %209 = icmp uge ptr %204, %208
  br i1 %209, label %210, label %222

210:                                              ; preds = %198
  %211 = load ptr, ptr %7, align 8
  %212 = getelementptr inbounds %struct._zend_ast, ptr %211, i32 0, i32 3
  %213 = load i32, ptr %10, align 4
  %214 = zext i32 %213 to i64
  %215 = getelementptr inbounds [1 x ptr], ptr %212, i64 0, i64 %214
  %216 = load ptr, ptr %215, align 8
  %217 = load ptr, ptr @accel_shared_globals, align 8
  %218 = getelementptr inbounds %struct._zend_accel_shared_globals, ptr %217, i32 0, i32 22
  %219 = getelementptr inbounds %struct._zend_string_table, ptr %218, i32 0, i32 3
  %220 = load ptr, ptr %219, align 8
  %221 = icmp ult ptr %216, %220
  br i1 %221, label %267, label %222

222:                                              ; preds = %210, %198
  br label %223

223:                                              ; preds = %222
  %224 = load ptr, ptr %7, align 8
  %225 = getelementptr inbounds %struct._zend_ast, ptr %224, i32 0, i32 3
  %226 = load i32, ptr %10, align 4
  %227 = zext i32 %226 to i64
  %228 = getelementptr inbounds [1 x ptr], ptr %225, i64 0, i64 %227
  %229 = load ptr, ptr %228, align 8
  %230 = icmp ne ptr %229, null
  br i1 %230, label %231, label %257

231:                                              ; preds = %223
  %232 = load ptr, ptr %7, align 8
  %233 = getelementptr inbounds %struct._zend_ast, ptr %232, i32 0, i32 3
  %234 = load i32, ptr %10, align 4
  %235 = zext i32 %234 to i64
  %236 = getelementptr inbounds [1 x ptr], ptr %233, i64 0, i64 %235
  %237 = load ptr, ptr %236, align 8
  %238 = load ptr, ptr %8, align 8
  %239 = getelementptr inbounds %struct._zend_persistent_script, ptr %238, i32 0, i32 12
  %240 = load i64, ptr %239, align 8
  %241 = inttoptr i64 %240 to ptr
  %242 = icmp ule ptr %237, %241
  call void @llvm.assume(i1 %242)
  %243 = load ptr, ptr %9, align 8
  %244 = load ptr, ptr %7, align 8
  %245 = getelementptr inbounds %struct._zend_ast, ptr %244, i32 0, i32 3
  %246 = load i32, ptr %10, align 4
  %247 = zext i32 %246 to i64
  %248 = getelementptr inbounds [1 x ptr], ptr %245, i64 0, i64 %247
  %249 = load ptr, ptr %248, align 8
  %250 = ptrtoint ptr %249 to i64
  %251 = getelementptr inbounds i8, ptr %243, i64 %250
  %252 = load ptr, ptr %7, align 8
  %253 = getelementptr inbounds %struct._zend_ast, ptr %252, i32 0, i32 3
  %254 = load i32, ptr %10, align 4
  %255 = zext i32 %254 to i64
  %256 = getelementptr inbounds [1 x ptr], ptr %253, i64 0, i64 %255
  store ptr %251, ptr %256, align 8
  br label %257

257:                                              ; preds = %231, %223
  br label %258

258:                                              ; preds = %257
  %259 = load ptr, ptr %7, align 8
  %260 = getelementptr inbounds %struct._zend_ast, ptr %259, i32 0, i32 3
  %261 = load i32, ptr %10, align 4
  %262 = zext i32 %261 to i64
  %263 = getelementptr inbounds [1 x ptr], ptr %260, i64 0, i64 %262
  %264 = load ptr, ptr %263, align 8
  %265 = load ptr, ptr %8, align 8
  %266 = load ptr, ptr %9, align 8
  call void @zend_file_cache_unserialize_ast(ptr noundef %264, ptr noundef %265, ptr noundef %266)
  br label %267

267:                                              ; preds = %258, %210, %183, %164
  br label %268

268:                                              ; preds = %267
  %269 = load i32, ptr %10, align 4
  %270 = add i32 %269, 1
  store i32 %270, ptr %10, align 4
  br label %160

271:                                              ; preds = %160
  br label %272

272:                                              ; preds = %271, %153
  br label %273

273:                                              ; preds = %272, %24
  ret void
}