; Function Attrs: nounwind uwtable
define internal fastcc void @zend_file_cache_unserialize_ast(ptr nocapture noundef %0, ptr noundef %1, ptr noundef %2) unnamed_addr #0 {
  %4 = load i16, ptr %0, align 8
  %5 = zext i16 %4 to i32
  %6 = and i16 %4, -2
  %switch = icmp eq i16 %6, 64
  br i1 %switch, label %7, label %9

7:                                                ; preds = %3
  %8 = getelementptr inbounds i8, ptr %0, i64 8
  tail call void @zend_file_cache_unserialize_zval(ptr noundef nonnull %8, ptr noundef %1, ptr noundef %2)
  br label %.loopexit

9:                                                ; preds = %3
  %10 = and i32 %5, 128
  %.not = icmp eq i32 %10, 0
  br i1 %.not, label %43, label %.preheader

.preheader:                                       ; preds = %9
  %11 = getelementptr inbounds i8, ptr %0, i64 8
  %12 = load i32, ptr %11, align 8
  %.not93 = icmp eq i32 %12, 0
  br i1 %.not93, label %.loopexit, label %.lr.ph

.lr.ph:                                           ; preds = %.preheader
  %13 = getelementptr inbounds i8, ptr %0, i64 16
  %14 = getelementptr inbounds i8, ptr %1, i64 416
  %15 = getelementptr inbounds i8, ptr %1, i64 424
  br label %16

16:                                               ; preds = %.lr.ph, %39
  %17 = phi i32 [ %12, %.lr.ph ], [ %40, %39 ]
  %indvars.iv = phi i64 [ 0, %.lr.ph ], [ %indvars.iv.next, %39 ]
  %18 = getelementptr inbounds [1 x ptr], ptr %13, i64 0, i64 %indvars.iv
  %19 = load ptr, ptr %18, align 8
  %.not84 = icmp eq ptr %19, null
  br i1 %.not84, label %39, label %20

20:                                               ; preds = %16
  %21 = load ptr, ptr %14, align 8
  %.not85 = icmp ult ptr %19, %21
  br i1 %.not85, label %25, label %22

22:                                               ; preds = %20
  %23 = load i64, ptr %15, align 8
  %24 = getelementptr inbounds i8, ptr %21, i64 %23
  %.not86 = icmp ugt ptr %19, %24
  br i1 %.not86, label %25, label %39

25:                                               ; preds = %22, %20
  %26 = load ptr, ptr @accel_shared_globals, align 8
  %27 = getelementptr inbounds i8, ptr %26, i64 176
  %28 = load ptr, ptr %27, align 8
  %.not87 = icmp ult ptr %19, %28
  br i1 %.not87, label %33, label %29

29:                                               ; preds = %25
  %30 = getelementptr inbounds i8, ptr %26, i64 184
  %31 = load ptr, ptr %30, align 8
  %32 = icmp ult ptr %19, %31
  br i1 %32, label %39, label %33

33:                                               ; preds = %25, %29
  %34 = load i64, ptr %15, align 8
  %35 = inttoptr i64 %34 to ptr
  %36 = icmp ule ptr %19, %35
  tail call void @llvm.assume(i1 %36)
  %37 = ptrtoint ptr %19 to i64
  %38 = getelementptr inbounds i8, ptr %2, i64 %37
  store ptr %38, ptr %18, align 8
  tail call fastcc void @zend_file_cache_unserialize_ast(ptr noundef nonnull %38, ptr noundef nonnull %1, ptr noundef %2)
  %.pre = load i32, ptr %11, align 8
  br label %39

39:                                               ; preds = %16, %22, %29, %33
  %40 = phi i32 [ %17, %16 ], [ %17, %22 ], [ %17, %29 ], [ %.pre, %33 ]
  %indvars.iv.next = add nuw nsw i64 %indvars.iv, 1
  %41 = zext i32 %40 to i64
  %42 = icmp ult i64 %indvars.iv.next, %41
  br i1 %42, label %16, label %.loopexit

43:                                               ; preds = %9
  %.not94 = icmp ult i16 %4, 256
  br i1 %.not94, label %.loopexit, label %.lr.ph92

.lr.ph92:                                         ; preds = %43
  %44 = lshr i32 %5, 8
  %45 = getelementptr inbounds i8, ptr %0, i64 8
  %46 = getelementptr inbounds i8, ptr %1, i64 416
  %47 = getelementptr inbounds i8, ptr %1, i64 424
  %wide.trip.count = zext nneg i32 %44 to i64
  br label %48

48:                                               ; preds = %.lr.ph92, %70
  %indvars.iv97 = phi i64 [ 0, %.lr.ph92 ], [ %indvars.iv.next98, %70 ]
  %49 = getelementptr inbounds [1 x ptr], ptr %45, i64 0, i64 %indvars.iv97
  %50 = load ptr, ptr %49, align 8
  %.not79 = icmp eq ptr %50, null
  br i1 %.not79, label %70, label %51

51:                                               ; preds = %48
  %52 = load ptr, ptr %46, align 8
  %.not80 = icmp ult ptr %50, %52
  br i1 %.not80, label %56, label %53

53:                                               ; preds = %51
  %54 = load i64, ptr %47, align 8
  %55 = getelementptr inbounds i8, ptr %52, i64 %54
  %.not81 = icmp ugt ptr %50, %55
  br i1 %.not81, label %56, label %70

56:                                               ; preds = %53, %51
  %57 = load ptr, ptr @accel_shared_globals, align 8
  %58 = getelementptr inbounds i8, ptr %57, i64 176
  %59 = load ptr, ptr %58, align 8
  %.not82 = icmp ult ptr %50, %59
  br i1 %.not82, label %64, label %60

60:                                               ; preds = %56
  %61 = getelementptr inbounds i8, ptr %57, i64 184
  %62 = load ptr, ptr %61, align 8
  %63 = icmp ult ptr %50, %62
  br i1 %63, label %70, label %64

64:                                               ; preds = %56, %60
  %65 = load i64, ptr %47, align 8
  %66 = inttoptr i64 %65 to ptr
  %67 = icmp ule ptr %50, %66
  tail call void @llvm.assume(i1 %67)
  %68 = ptrtoint ptr %50 to i64
  %69 = getelementptr inbounds i8, ptr %2, i64 %68
  store ptr %69, ptr %49, align 8
  tail call fastcc void @zend_file_cache_unserialize_ast(ptr noundef nonnull %69, ptr noundef nonnull %1, ptr noundef %2)
  br label %70

70:                                               ; preds = %48, %53, %60, %64
  %indvars.iv.next98 = add nuw nsw i64 %indvars.iv97, 1
  %exitcond.not = icmp eq i64 %indvars.iv.next98, %wide.trip.count
  br i1 %exitcond.not, label %.loopexit, label %48

.loopexit:                                        ; preds = %39, %70, %.preheader, %43, %7
  ret void
}